; Function Attrs: mustprogress nofree norecurse nosync nounwind willreturn memory(read, inaccessiblemem: none) uwtable
define dso_local noundef range(i32 -1, 256) i32 @_ZN4llvm8AsmLexer12peekNextCharEv(ptr nocapture noundef nonnull readonly align 8 dereferenceable(180) %0) local_unnamed_addr #7 align 2 {
  %2 = getelementptr inbounds nuw i8, ptr %0, i64 152
  %3 = load ptr, ptr %2, align 8
  %4 = getelementptr inbounds nuw i8, ptr %0, i64 160
  %5 = load ptr, ptr %4, align 8
  %6 = getelementptr inbounds i8, ptr %0, i64 168
  %7 = load i64, ptr %6, align 8
  %8 = getelementptr inbounds i8, ptr %5, i64 %7
  %9 = icmp eq ptr %3, %8
  br i1 %9, label %13, label %10

10:                                               ; preds = %1
  %11 = load i8, ptr %3, align 1
  %12 = zext i8 %11 to i32
  br label %13

13:                                               ; preds = %1, %10
  %.0 = phi i32 [ %12, %10 ], [ -1, %1 ]
  ret i32 %.0
}